target datalayout = "e-m:e-p270:32:32-p271:32:32-p272:64:64-i64:64-i128:128-f80:128-n8:16:32:64-S128"
target triple = "x86_64-pc-linux-gnu"

%struct.malloc_mutex_s = type { %union.anon }
%union.anon = type { %struct.anon }
%struct.anon = type { %struct.mutex_prof_data_t, %struct.atomic_b_t, %union.pthread_mutex_t }
%struct.mutex_prof_data_t = type { %struct.nstime_t, %struct.nstime_t, i64, i64, i32, %struct.atomic_u32_t, i64, ptr, i64 }
%struct.nstime_t = type { i64 }
%struct.atomic_u32_t = type { i32 }
%struct.atomic_b_t = type { i8 }
%union.pthread_mutex_t = type { %struct.__pthread_mutex_s }
%struct.__pthread_mutex_s = type { i32, i32, i32, i32, i32, i16, i16, %struct.__pthread_internal_list }
%struct.__pthread_internal_list = type { ptr, ptr }
%struct.background_thread_info_s = type { i64, %union.pthread_cond_t, %struct.malloc_mutex_s, i32, %struct.atomic_b_t, %struct.nstime_t, i64, i64, %struct.nstime_t }
%union.pthread_cond_t = type { %struct.__pthread_cond_s }
%struct.__pthread_cond_s = type { %union.__atomic_wide_counter, %union.__atomic_wide_counter, [2 x i32], [2 x i32], i32, i32, [2 x i32] }
%union.__atomic_wide_counter = type { i64 }

@duckdb_je_background_thread_lock = global %struct.malloc_mutex_s zeroinitializer, align 8
@duckdb_je_max_background_threads = global i64 0, align 8
@duckdb_je_background_thread_info = global ptr null, align 8

; Function Attrs: nounwind uwtable
define void @duckdb_je_background_thread_postfork_parent(ptr noundef %0) #0 {
  %2 = alloca ptr, align 8
  %3 = alloca i32, align 4
  store ptr %0, ptr %2, align 8, !tbaa !19
  call void @llvm.lifetime.start.p0(i64 4, ptr %3) #11
  store i32 0, ptr %3, align 4, !tbaa !13
  br label %4

4:                                                ; preds = %17, %1
  %5 = load i32, ptr %3, align 4, !tbaa !13
  %6 = zext i32 %5 to i64
  %7 = load i64, ptr @duckdb_je_max_background_threads, align 8, !tbaa !23
  %8 = icmp ult i64 %6, %7
  br i1 %8, label %10, label %9

9:                                                ; preds = %4
  call void @llvm.lifetime.end.p0(i64 4, ptr %3) #11
  br label %20

10:                                               ; preds = %4
  %11 = load ptr, ptr %2, align 8, !tbaa !19
  %12 = load ptr, ptr @duckdb_je_background_thread_info, align 8, !tbaa !25
  %13 = load i32, ptr %3, align 4, !tbaa !13
  %14 = zext i32 %13 to i64
  %15 = getelementptr inbounds nuw %struct.background_thread_info_s, ptr %12, i64 %14
  %16 = getelementptr inbounds nuw %struct.background_thread_info_s, ptr %15, i32 0, i32 2
  call void @duckdb_je_malloc_mutex_postfork_parent(ptr noundef %11, ptr noundef %16)
  br label %17

17:                                               ; preds = %10
  %18 = load i32, ptr %3, align 4, !tbaa !13
  %19 = add i32 %18, 1
  store i32 %19, ptr %3, align 4, !tbaa !13
  br label %4

20:                                               ; preds = %9
  %21 = load ptr, ptr %2, align 8, !tbaa !19
  call void @duckdb_je_malloc_mutex_postfork_parent(ptr noundef %21, ptr noundef @duckdb_je_background_thread_lock)
  ret void
}